# SymbolsHelper-Confirmed: 4:4.6.90 amd64
libkateinterfaces.so.4 libkateinterfaces4 #MINVER#
 _Z29fillinRunningKateAppInstancesP4QMapI7QStringP23KateRunningInstanceInfoE@Base 4:4.6.90
 _Z32cleanupRunningKateAppInstanceMapP4QMapI7QStringP23KateRunningInstanceInfoE@Base 4:4.6.90
 _ZN4Kate10MainWindow10activeViewEv@Base 4:4.6.90
 _ZN4Kate10MainWindow11qt_metacallEN11QMetaObject4CallEiPPv@Base 4:4.6.90
 _ZN4Kate10MainWindow11qt_metacastEPKc@Base 4:4.6.90
 _ZN4Kate10MainWindow11viewChangedEv@Base 4:4.6.90
 _ZN4Kate10MainWindow11viewCreatedEPN11KTextEditor4ViewE@Base 4:4.6.90
 _ZN4Kate10MainWindow12activateViewEPN11KTextEditor8DocumentE@Base 4:4.6.90
 _ZN4Kate10MainWindow12hideToolViewEP7QWidget@Base 4:4.6.90
 _ZN4Kate10MainWindow12moveToolViewEP7QWidgetNS0_8PositionE@Base 4:4.6.90
 _ZN4Kate10MainWindow12showToolViewEP7QWidget@Base 4:4.6.90
 _ZN4Kate10MainWindow14createToolViewERK7QStringNS0_8PositionERK7QPixmapS3_@Base 4:4.6.90
 _ZN4Kate10MainWindow16staticMetaObjectE@Base 4:4.6.90
 _ZN4Kate10MainWindow20showPluginConfigPageEPNS_25PluginConfigPageInterfaceEj@Base 4:4.6.90
 _ZN4Kate10MainWindow7openUrlERK4KUrlRK7QString@Base 4:4.6.90
 _ZN4Kate10MainWindowC1EPv@Base 4:4.6.90
 _ZN4Kate10MainWindowC2EPv@Base 4:4.6.90
 _ZN4Kate10MainWindowD0Ev@Base 4:4.6.90
 _ZN4Kate10MainWindowD1Ev@Base 4:4.6.90
 _ZN4Kate10MainWindowD2Ev@Base 4:4.6.90
 _ZN4Kate10PluginView11qt_metacallEN11QMetaObject4CallEiPPv@Base 4:4.6.90
 _ZN4Kate10PluginView11qt_metacastEPKc@Base 4:4.6.90
 _ZN4Kate10PluginView16staticMetaObjectE@Base 4:4.6.90
 _ZN4Kate10PluginView17readSessionConfigEP11KConfigBaseRK7QString@Base 4:4.6.90
 _ZN4Kate10PluginView18writeSessionConfigEP11KConfigBaseRK7QString@Base 4:4.6.90
 _ZN4Kate10PluginViewC1EPNS_10MainWindowE@Base 4:4.6.90
 _ZN4Kate10PluginViewC2EPNS_10MainWindowE@Base 4:4.6.90
 _ZN4Kate10PluginViewD0Ev@Base 4:4.6.90
 _ZN4Kate10PluginViewD1Ev@Base 4:4.6.90
 _ZN4Kate10PluginViewD2Ev@Base 4:4.6.90
 _ZN4Kate11Application11qt_metacallEN11QMetaObject4CallEiPPv@Base 4:4.6.90
 _ZN4Kate11Application11qt_metacastEPKc@Base 4:4.6.90
 _ZN4Kate11Application13pluginManagerEv@Base 4:4.6.90
 _ZN4Kate11Application15documentManagerEv@Base 4:4.6.90
 _ZN4Kate11Application16activeMainWindowEv@Base 4:4.6.90
 _ZN4Kate11Application16staticMetaObjectE@Base 4:4.6.90
 _ZN4Kate11Application6editorEv@Base 4:4.6.90
 _ZN4Kate11ApplicationC1EPv@Base 4:4.6.90
 _ZN4Kate11ApplicationC2EPv@Base 4:4.6.90
 _ZN4Kate11ApplicationD0Ev@Base 4:4.6.90
 _ZN4Kate11ApplicationD1Ev@Base 4:4.6.90
 _ZN4Kate11ApplicationD2Ev@Base 4:4.6.90
 _ZN4Kate11applicationEv@Base 4:4.6.90
 _ZN4Kate12XMLGUIClient11xmlDataFileERK14KComponentDataRK7QString@Base 4:4.6.90
 _ZN4Kate12XMLGUIClient16localXmlDataFileERK14KComponentDataRK7QString@Base 4:4.6.90
 _ZN4Kate12XMLGUIClientC1ERK14KComponentData@Base 4:4.6.90
 _ZN4Kate12XMLGUIClientC2ERK14KComponentData@Base 4:4.6.90
 _ZN4Kate12XMLGUIClientD0Ev@Base 4:4.6.90
 _ZN4Kate12XMLGUIClientD1Ev@Base 4:4.6.90
 _ZN4Kate12XMLGUIClientD2Ev@Base 4:4.6.90
 _ZN4Kate12createPluginEPKcPNS_11ApplicationERK11QStringList@Base 4:4.6.90
 _ZN4Kate13PluginManager10loadPluginERK7QStringb@Base 4:4.6.90
 _ZN4Kate13PluginManager11qt_metacallEN11QMetaObject4CallEiPPv@Base 4:4.6.90
 _ZN4Kate13PluginManager11qt_metacastEPKc@Base 4:4.6.90
 _ZN4Kate13PluginManager12unloadPluginERK7QStringb@Base 4:4.6.90
 _ZN4Kate13PluginManager15pluginAvailableERK7QString@Base 4:4.6.90
 _ZN4Kate13PluginManager16staticMetaObjectE@Base 4:4.6.90
 _ZN4Kate13PluginManager6pluginERK7QString@Base 4:4.6.90
 _ZN4Kate13PluginManagerC1EPv@Base 4:4.6.90
 _ZN4Kate13PluginManagerC2EPv@Base 4:4.6.90
 _ZN4Kate13PluginManagerD0Ev@Base 4:4.6.90
 _ZN4Kate13PluginManagerD1Ev@Base 4:4.6.90
 _ZN4Kate13PluginManagerD2Ev@Base 4:4.6.90
 _ZN4Kate15DocumentManager11qt_metacallEN11QMetaObject4CallEiPPv@Base 4:4.6.90
 _ZN4Kate15DocumentManager11qt_metacastEPKc@Base 4:4.6.90
 _ZN4Kate15DocumentManager13closeDocumentEPN11KTextEditor8DocumentE@Base 4:4.6.90
 _ZN4Kate15DocumentManager15documentCreatedEPN11KTextEditor8DocumentE@Base 4:4.6.90
 _ZN4Kate15DocumentManager15documentDeletedEPN11KTextEditor8DocumentE@Base 4:4.6.90
 _ZN4Kate15DocumentManager16staticMetaObjectE@Base 4:4.6.90
 _ZN4Kate15DocumentManager17closeDocumentListE5QListIPN11KTextEditor8DocumentEE@Base 4:4.6.90
 _ZN4Kate15DocumentManager21documentWillBeDeletedEPN11KTextEditor8DocumentE@Base 4:4.6.90
 _ZN4Kate15DocumentManager7openUrlERK4KUrlRK7QString@Base 4:4.6.90
 _ZN4Kate15DocumentManagerC1EPv@Base 4:4.6.90
 _ZN4Kate15DocumentManagerC2EPv@Base 4:4.6.90
 _ZN4Kate15DocumentManagerD0Ev@Base 4:4.6.90
 _ZN4Kate15DocumentManagerD1Ev@Base 4:4.6.90
 _ZN4Kate15DocumentManagerD2Ev@Base 4:4.6.90
 _ZN4Kate15documentManagerEv@Base 4:4.6.90
 _ZN4Kate16PluginConfigPage11qt_metacallEN11QMetaObject4CallEiPPv@Base 4:4.6.90
 _ZN4Kate16PluginConfigPage11qt_metacastEPKc@Base 4:4.6.90
 _ZN4Kate16PluginConfigPage16staticMetaObjectE@Base 4:4.6.90
 _ZN4Kate16PluginConfigPage7changedEv@Base 4:4.6.90
 _ZN4Kate16PluginConfigPageC1EP7QWidgetPKc@Base 4:4.6.90
 _ZN4Kate16PluginConfigPageC2EP7QWidgetPKc@Base 4:4.6.90
 _ZN4Kate16PluginConfigPageD0Ev@Base 4:4.6.90
 _ZN4Kate16PluginConfigPageD1Ev@Base 4:4.6.90
 _ZN4Kate16PluginConfigPageD2Ev@Base 4:4.6.90
 _ZN4Kate25PluginConfigPageInterface37globalPluginConfigPageInterfaceNumberE@Base 4:4.6.90
 _ZN4Kate25PluginConfigPageInterfaceC1Ev@Base 4:4.6.90
 _ZN4Kate25PluginConfigPageInterfaceC2Ev@Base 4:4.6.90
 _ZN4Kate25PluginConfigPageInterfaceD0Ev@Base 4:4.6.90
 _ZN4Kate25PluginConfigPageInterfaceD1Ev@Base 4:4.6.90
 _ZN4Kate25PluginConfigPageInterfaceD2Ev@Base 4:4.6.90
 _ZN4Kate25pluginConfigPageInterfaceEPNS_6PluginE@Base 4:4.6.90
 _ZN4Kate6Plugin10createViewEPNS_10MainWindowE@Base 4:4.6.90
 _ZN4Kate6Plugin11qt_metacallEN11QMetaObject4CallEiPPv@Base 4:4.6.90
 _ZN4Kate6Plugin11qt_metacastEPKc@Base 4:4.6.90
 _ZN4Kate6Plugin16staticMetaObjectE@Base 4:4.6.90
 _ZN4Kate6Plugin17readSessionConfigEP11KConfigBaseRK7QString@Base 4:4.6.90
 _ZN4Kate6Plugin18writeSessionConfigEP11KConfigBaseRK7QString@Base 4:4.6.90
 _ZN4Kate6PluginC1EPNS_11ApplicationEPKc@Base 4:4.6.90
 _ZN4Kate6PluginC2EPNS_11ApplicationEPKc@Base 4:4.6.90
 _ZN4Kate6PluginD0Ev@Base 4:4.6.90
 _ZN4Kate6PluginD1Ev@Base 4:4.6.90
 _ZN4Kate6PluginD2Ev@Base 4:4.6.90
 _ZN7KateApp10mainWindowEi@Base 4:4.6.90
 _ZN7KateApp10openDocUrlERK4KUrlRK7QStringb@Base 4:4.6.90
 _ZN7KateApp11applicationEv@Base 4:4.6.90
 _ZN7KateApp11kateVersionEb@Base 4:4.6.90
 _ZN7KateApp11qt_metacallEN11QMetaObject4CallEiPPv@Base 4:4.6.90
 _ZN7KateApp11qt_metacastEPKc@Base 4:4.6.90
 _ZN7KateApp11restoreKateEv@Base 4:4.6.90
 _ZN7KateApp11startupKateEv@Base 4:4.6.90
 _ZN7KateApp12mainWindowIDEP14KateMainWindow@Base 4:4.6.90
 _ZN7KateApp12shutdownKateEP14KateMainWindow@Base 4:4.6.90
 _ZN7KateApp13addMainWindowEP14KateMainWindow@Base 4:4.6.90
 _ZN7KateApp13newMainWindowEP7KConfigRK7QString@Base 4:4.6.90
 _ZN7KateApp13pluginManagerEv@Base 4:4.6.90
 _ZN7KateApp14sessionManagerEv@Base 4:4.6.90
 _ZN7KateApp15documentManagerEv@Base 4:4.6.90
 _ZN7KateApp16activeMainWindowEv@Base 4:4.6.90
 _ZN7KateApp16removeMainWindowEP14KateMainWindow@Base 4:4.6.90
 _ZN7KateApp16staticMetaObjectE@Base 4:4.6.90
 _ZN7KateApp18emitDocumentClosedERK7QString@Base 4:4.6.90
 _ZN7KateApp4selfEv@Base 4:4.6.90
 _ZN7KateApp7openUrlERK4KUrlRK7QStringb@Base 4:4.6.90
 _ZN7KateApp8initKateEv@Base 4:4.6.90
 _ZN7KateApp9openInputERK7QString@Base 4:4.6.90
 _ZN7KateApp9setCursorEii@Base 4:4.6.90
 _ZN7KateAppC1EP12KCmdLineArgs@Base 4:4.6.90
 _ZN7KateAppC2EP12KCmdLineArgs@Base 4:4.6.90
 _ZN7KateAppD0Ev@Base 4:4.6.90
 _ZN7KateAppD1Ev@Base 4:4.6.90
 _ZN7KateAppD2Ev@Base 4:4.6.90
 _ZNK4Kate10MainWindow10guiFactoryEv@Base 4:4.6.90
 _ZNK4Kate10MainWindow10metaObjectEv@Base 4:4.6.90
 _ZNK4Kate10MainWindow13centralWidgetEv@Base 4:4.6.90
 _ZNK4Kate10MainWindow6windowEv@Base 4:4.6.90
 _ZNK4Kate10PluginView10mainWindowEv@Base 4:4.6.90
 _ZNK4Kate10PluginView10metaObjectEv@Base 4:4.6.90
 _ZNK4Kate11Application10metaObjectEv@Base 4:4.6.90
 _ZNK4Kate11Application11mainWindowsEv@Base 4:4.6.90
 _ZNK4Kate13PluginManager10metaObjectEv@Base 4:4.6.90
 _ZNK4Kate15DocumentManager10metaObjectEv@Base 4:4.6.90
 _ZNK4Kate15DocumentManager7findUrlERK4KUrl@Base 4:4.6.90
 _ZNK4Kate15DocumentManager9documentsEv@Base 4:4.6.90
 _ZNK4Kate16PluginConfigPage10metaObjectEv@Base 4:4.6.90
 _ZNK4Kate25PluginConfigPageInterface31pluginConfigPageInterfaceNumberEv@Base 4:4.6.90
 _ZNK4Kate6Plugin10metaObjectEv@Base 4:4.6.90
 _ZNK4Kate6Plugin11applicationEv@Base 4:4.6.90
 _ZNK7KateApp10metaObjectEv@Base 4:4.6.90
 _ZNK7KateApp11mainWindowsEv@Base 4:4.6.90
 _ZTI7KateApp@Base 4:4.6.90
 _ZTIN11KTextEditor7CommandE@Base 4:4.6.90
 _ZTIN4Kate10MainWindowE@Base 4:4.6.90
 _ZTIN4Kate10PluginViewE@Base 4:4.6.90
 _ZTIN4Kate11ApplicationE@Base 4:4.6.90
 _ZTIN4Kate12XMLGUIClientE@Base 4:4.6.90
 _ZTIN4Kate13PluginManagerE@Base 4:4.6.90
 _ZTIN4Kate15DocumentManagerE@Base 4:4.6.90
 _ZTIN4Kate16PluginConfigPageE@Base 4:4.6.90
 _ZTIN4Kate25PluginConfigPageInterfaceE@Base 4:4.6.90
 _ZTIN4Kate6PluginE@Base 4:4.6.90
 _ZTS7KateApp@Base 4:4.6.90
 _ZTSN11KTextEditor7CommandE@Base 4:4.6.90
 _ZTSN4Kate10MainWindowE@Base 4:4.6.90
 _ZTSN4Kate10PluginViewE@Base 4:4.6.90
 _ZTSN4Kate11ApplicationE@Base 4:4.6.90
 _ZTSN4Kate12XMLGUIClientE@Base 4:4.6.90
 _ZTSN4Kate13PluginManagerE@Base 4:4.6.90
 _ZTSN4Kate15DocumentManagerE@Base 4:4.6.90
 _ZTSN4Kate16PluginConfigPageE@Base 4:4.6.90
 _ZTSN4Kate25PluginConfigPageInterfaceE@Base 4:4.6.90
 _ZTSN4Kate6PluginE@Base 4:4.6.90
 _ZTV7KateApp@Base 4:4.6.90
 _ZTVN11KTextEditor7CommandE@Base 4:4.6.90
 _ZTVN4Kate10MainWindowE@Base 4:4.6.90
 _ZTVN4Kate10PluginViewE@Base 4:4.6.90
 _ZTVN4Kate11ApplicationE@Base 4:4.6.90
 _ZTVN4Kate12XMLGUIClientE@Base 4:4.6.90
 _ZTVN4Kate13PluginManagerE@Base 4:4.6.90
 _ZTVN4Kate15DocumentManagerE@Base 4:4.6.90
 _ZTVN4Kate16PluginConfigPageE@Base 4:4.6.90
 _ZTVN4Kate25PluginConfigPageInterfaceE@Base 4:4.6.90
 _ZTVN4Kate6PluginE@Base 4:4.6.90
 (c++)"non-virtual thunk to Kate::PluginConfigPage::~PluginConfigPage()@Base" 4:4.6.90
